target datalayout = "e-m:e-p270:32:32-p271:32:32-p272:64:64-i64:64-i128:128-f80:128-n8:16:32:64-S128"
target triple = "x86_64-pc-linux-gnu"

%struct.stb_vorbis = type { i32, i32, i32, i32, i32, ptr, i32, ptr, ptr, i32, i32, ptr, ptr, ptr, i32, i8, i32, %struct.ProbedPage, %struct.ProbedPage, %struct.stb_vorbis_alloc, i32, i32, i32, i32, [2 x i32], i32, i32, i32, ptr, i32, [64 x i16], ptr, i32, [64 x i16], ptr, i32, ptr, i32, [64 x %struct.Mode], i32, [16 x ptr], [16 x ptr], [16 x ptr], i32, [16 x ptr], i32, i32, [2 x ptr], [2 x ptr], [2 x ptr], [2 x ptr], [2 x ptr], i32, i32, i32, [255 x i8], i8, i8, i8, i32, i32, i32, i32, i32, i32, i32, i32, i32, i32, i32, [4 x %struct.CRCscan], i32, i32 }
%struct.ProbedPage = type { i32, i32, i32 }
%struct.stb_vorbis_alloc = type { ptr, i32 }
%struct.Mode = type { i8, i8, i16, i16 }
%struct.CRCscan = type { i32, i32, i32, i32, i32 }

@ogg_page_header = global [4 x i8] c"OggS", align 1

; Function Attrs: nounwind uwtable
define i32 @error(ptr noundef %0, i32 noundef %1) #0 {
  %3 = alloca ptr, align 8
  %4 = alloca i32, align 4
  store ptr %0, ptr %3, align 8, !tbaa !3
  store i32 %1, ptr %4, align 4, !tbaa !8
  %5 = load i32, ptr %4, align 4, !tbaa !8
  %6 = load ptr, ptr %3, align 8, !tbaa !3
  %7 = getelementptr inbounds nuw %struct.stb_vorbis, ptr %6, i32 0, i32 23
  store i32 %5, ptr %7, align 4, !tbaa !10
  %8 = load ptr, ptr %3, align 8, !tbaa !3
  %9 = getelementptr inbounds nuw %struct.stb_vorbis, ptr %8, i32 0, i32 22
  %10 = load i32, ptr %9, align 8, !tbaa !17
  %11 = icmp ne i32 %10, 0
  br i1 %11, label %19, label %12

12:                                               ; preds = %2
  %13 = load i32, ptr %4, align 4, !tbaa !8
  %14 = icmp ne i32 %13, 1
  br i1 %14, label %15, label %19

15:                                               ; preds = %12
  %16 = load i32, ptr %4, align 4, !tbaa !8
  %17 = load ptr, ptr %3, align 8, !tbaa !3
  %18 = getelementptr inbounds nuw %struct.stb_vorbis, ptr %17, i32 0, i32 23
  store i32 %16, ptr %18, align 4, !tbaa !10
  br label %19

19:                                               ; preds = %15, %12, %2
  ret i32 0
}

; Function Attrs: nounwind uwtable
define i32 @is_whole_packet_present(ptr noundef %0) #0 {
  %2 = alloca i32, align 4
  %3 = alloca ptr, align 8
  %4 = alloca i32, align 4
  %5 = alloca i32, align 4
  %6 = alloca ptr, align 8
  %7 = alloca i32, align 4
  %8 = alloca ptr, align 8
  %9 = alloca i32, align 4
  store ptr %0, ptr %3, align 8, !tbaa !3
  call void @llvm.lifetime.start.p0(i64 4, ptr %4) #11
  %10 = load ptr, ptr %3, align 8, !tbaa !3
  %11 = getelementptr inbounds nuw %struct.stb_vorbis, ptr %10, i32 0, i32 59
  %12 = load i32, ptr %11, align 8, !tbaa !87
  store i32 %12, ptr %4, align 4, !tbaa !8
  call void @llvm.lifetime.start.p0(i64 4, ptr %5) #11
  store i32 1, ptr %5, align 4, !tbaa !8
  call void @llvm.lifetime.start.p0(i64 8, ptr %6) #11
  %13 = load ptr, ptr %3, align 8, !tbaa !3
  %14 = getelementptr inbounds nuw %struct.stb_vorbis, ptr %13, i32 0, i32 11
  %15 = load ptr, ptr %14, align 8, !tbaa !68
  store ptr %15, ptr %6, align 8, !tbaa !19
  %16 = load i32, ptr %4, align 4, !tbaa !8
  %17 = icmp ne i32 %16, -1
  br i1 %17, label %18, label %66

18:                                               ; preds = %1
  br label %19

19:                                               ; preds = %46, %18
  %20 = load i32, ptr %4, align 4, !tbaa !8
  %21 = load ptr, ptr %3, align 8, !tbaa !3
  %22 = getelementptr inbounds nuw %struct.stb_vorbis, ptr %21, i32 0, i32 54
  %23 = load i32, ptr %22, align 8, !tbaa !80
  %24 = icmp slt i32 %20, %23
  br i1 %24, label %25, label %49

25:                                               ; preds = %19
  %26 = load ptr, ptr %3, align 8, !tbaa !3
  %27 = getelementptr inbounds nuw %struct.stb_vorbis, ptr %26, i32 0, i32 55
  %28 = load i32, ptr %4, align 4, !tbaa !8
  %29 = sext i32 %28 to i64
  %30 = getelementptr inbounds [255 x i8], ptr %27, i64 0, i64 %29
  %31 = load i8, ptr %30, align 1, !tbaa !30
  %32 = zext i8 %31 to i32
  %33 = load ptr, ptr %6, align 8, !tbaa !19
  %34 = sext i32 %32 to i64
  %35 = getelementptr inbounds i8, ptr %33, i64 %34
  store ptr %35, ptr %6, align 8, !tbaa !19
  %36 = load ptr, ptr %3, align 8, !tbaa !3
  %37 = getelementptr inbounds nuw %struct.stb_vorbis, ptr %36, i32 0, i32 55
  %38 = load i32, ptr %4, align 4, !tbaa !8
  %39 = sext i32 %38 to i64
  %40 = getelementptr inbounds [255 x i8], ptr %37, i64 0, i64 %39
  %41 = load i8, ptr %40, align 1, !tbaa !30
  %42 = zext i8 %41 to i32
  %43 = icmp slt i32 %42, 255
  br i1 %43, label %44, label %45

44:                                               ; preds = %25
  br label %49

45:                                               ; preds = %25
  br label %46

46:                                               ; preds = %45
  %47 = load i32, ptr %4, align 4, !tbaa !8
  %48 = add nsw i32 %47, 1
  store i32 %48, ptr %4, align 4, !tbaa !8
  br label %19, !llvm.loop !201

49:                                               ; preds = %44, %19
  %50 = load i32, ptr %4, align 4, !tbaa !8
  %51 = load ptr, ptr %3, align 8, !tbaa !3
  %52 = getelementptr inbounds nuw %struct.stb_vorbis, ptr %51, i32 0, i32 54
  %53 = load i32, ptr %52, align 8, !tbaa !80
  %54 = icmp eq i32 %50, %53
  br i1 %54, label %55, label %56

55:                                               ; preds = %49
  store i32 -1, ptr %4, align 4, !tbaa !8
  br label %56

56:                                               ; preds = %55, %49
  %57 = load ptr, ptr %6, align 8, !tbaa !19
  %58 = load ptr, ptr %3, align 8, !tbaa !3
  %59 = getelementptr inbounds nuw %struct.stb_vorbis, ptr %58, i32 0, i32 13
  %60 = load ptr, ptr %59, align 8, !tbaa !69
  %61 = icmp ugt ptr %57, %60
  br i1 %61, label %62, label %65

62:                                               ; preds = %56
  %63 = load ptr, ptr %3, align 8, !tbaa !3
  %64 = call i32 @error(ptr noundef %63, i32 noundef 1)
  store i32 %64, ptr %2, align 4
  store i32 1, ptr %7, align 4
  br label %192

65:                                               ; preds = %56
  store i32 0, ptr %5, align 4, !tbaa !8
  br label %66

66:                                               ; preds = %65, %1
  br label %67

67:                                               ; preds = %190, %66
  %68 = load i32, ptr %4, align 4, !tbaa !8
  %69 = icmp eq i32 %68, -1
  br i1 %69, label %70, label %191

70:                                               ; preds = %67
  call void @llvm.lifetime.start.p0(i64 8, ptr %8) #11
  call void @llvm.lifetime.start.p0(i64 4, ptr %9) #11
  %71 = load ptr, ptr %6, align 8, !tbaa !19
  %72 = getelementptr inbounds i8, ptr %71, i64 26
  %73 = load ptr, ptr %3, align 8, !tbaa !3
  %74 = getelementptr inbounds nuw %struct.stb_vorbis, ptr %73, i32 0, i32 13
  %75 = load ptr, ptr %74, align 8, !tbaa !69
  %76 = icmp uge ptr %72, %75
  br i1 %76, label %77, label %80

77:                                               ; preds = %70
  %78 = load ptr, ptr %3, align 8, !tbaa !3
  %79 = call i32 @error(ptr noundef %78, i32 noundef 1)
  store i32 %79, ptr %2, align 4
  store i32 1, ptr %7, align 4
  br label %188

80:                                               ; preds = %70
  %81 = load ptr, ptr %6, align 8, !tbaa !19
  %82 = call i32 @memcmp(ptr noundef %81, ptr noundef @ogg_page_header, i64 noundef 4) #13
  %83 = icmp ne i32 %82, 0
  br i1 %83, label %84, label %87

84:                                               ; preds = %80
  %85 = load ptr, ptr %3, align 8, !tbaa !3
  %86 = call i32 @error(ptr noundef %85, i32 noundef 21)
  store i32 %86, ptr %2, align 4
  store i32 1, ptr %7, align 4
  br label %188

87:                                               ; preds = %80
  %88 = load ptr, ptr %6, align 8, !tbaa !19
  %89 = getelementptr inbounds i8, ptr %88, i64 4
  %90 = load i8, ptr %89, align 1, !tbaa !30
  %91 = zext i8 %90 to i32
  %92 = icmp ne i32 %91, 0
  br i1 %92, label %93, label %96

93:                                               ; preds = %87
  %94 = load ptr, ptr %3, align 8, !tbaa !3
  %95 = call i32 @error(ptr noundef %94, i32 noundef 21)
  store i32 %95, ptr %2, align 4
  store i32 1, ptr %7, align 4
  br label %188

96:                                               ; preds = %87
  %97 = load i32, ptr %5, align 4, !tbaa !8
  %98 = icmp ne i32 %97, 0
  br i1 %98, label %99, label %116

99:                                               ; preds = %96
  %100 = load ptr, ptr %3, align 8, !tbaa !3
  %101 = getelementptr inbounds nuw %struct.stb_vorbis, ptr %100, i32 0, i32 43
  %102 = load i32, ptr %101, align 8, !tbaa !195
  %103 = icmp ne i32 %102, 0
  br i1 %103, label %104, label %115

104:                                              ; preds = %99
  %105 = load ptr, ptr %6, align 8, !tbaa !19
  %106 = getelementptr inbounds i8, ptr %105, i64 5
  %107 = load i8, ptr %106, align 1, !tbaa !30
  %108 = zext i8 %107 to i32
  %109 = and i32 %108, 1
  %110 = icmp ne i32 %109, 0
  br i1 %110, label %111, label %114

111:                                              ; preds = %104
  %112 = load ptr, ptr %3, align 8, !tbaa !3
  %113 = call i32 @error(ptr noundef %112, i32 noundef 21)
  store i32 %113, ptr %2, align 4
  store i32 1, ptr %7, align 4
  br label %188

114:                                              ; preds = %104
  br label %115

115:                                              ; preds = %114, %99
  br label %127

116:                                              ; preds = %96
  %117 = load ptr, ptr %6, align 8, !tbaa !19
  %118 = getelementptr inbounds i8, ptr %117, i64 5
  %119 = load i8, ptr %118, align 1, !tbaa !30
  %120 = zext i8 %119 to i32
  %121 = and i32 %120, 1
  %122 = icmp ne i32 %121, 0
  br i1 %122, label %126, label %123

123:                                              ; preds = %116
  %124 = load ptr, ptr %3, align 8, !tbaa !3
  %125 = call i32 @error(ptr noundef %124, i32 noundef 21)
  store i32 %125, ptr %2, align 4
  store i32 1, ptr %7, align 4
  br label %188

126:                                              ; preds = %116
  br label %127

127:                                              ; preds = %126, %115
  %128 = load ptr, ptr %6, align 8, !tbaa !19
  %129 = getelementptr inbounds i8, ptr %128, i64 26
  %130 = load i8, ptr %129, align 1, !tbaa !30
  %131 = zext i8 %130 to i32
  store i32 %131, ptr %9, align 4, !tbaa !8
  %132 = load ptr, ptr %6, align 8, !tbaa !19
  %133 = getelementptr inbounds i8, ptr %132, i64 27
  store ptr %133, ptr %8, align 8, !tbaa !19
  %134 = load ptr, ptr %8, align 8, !tbaa !19
  %135 = load i32, ptr %9, align 4, !tbaa !8
  %136 = sext i32 %135 to i64
  %137 = getelementptr inbounds i8, ptr %134, i64 %136
  store ptr %137, ptr %6, align 8, !tbaa !19
  %138 = load ptr, ptr %6, align 8, !tbaa !19
  %139 = load ptr, ptr %3, align 8, !tbaa !3
  %140 = getelementptr inbounds nuw %struct.stb_vorbis, ptr %139, i32 0, i32 13
  %141 = load ptr, ptr %140, align 8, !tbaa !69
  %142 = icmp ugt ptr %138, %141
  br i1 %142, label %143, label %146

143:                                              ; preds = %127
  %144 = load ptr, ptr %3, align 8, !tbaa !3
  %145 = call i32 @error(ptr noundef %144, i32 noundef 1)
  store i32 %145, ptr %2, align 4
  store i32 1, ptr %7, align 4
  br label %188

146:                                              ; preds = %127
  store i32 0, ptr %4, align 4, !tbaa !8
  br label %147

147:                                              ; preds = %170, %146
  %148 = load i32, ptr %4, align 4, !tbaa !8
  %149 = load i32, ptr %9, align 4, !tbaa !8
  %150 = icmp slt i32 %148, %149
  br i1 %150, label %151, label %173

151:                                              ; preds = %147
  %152 = load ptr, ptr %8, align 8, !tbaa !19
  %153 = load i32, ptr %4, align 4, !tbaa !8
  %154 = sext i32 %153 to i64
  %155 = getelementptr inbounds i8, ptr %152, i64 %154
  %156 = load i8, ptr %155, align 1, !tbaa !30
  %157 = zext i8 %156 to i32
  %158 = load ptr, ptr %6, align 8, !tbaa !19
  %159 = sext i32 %157 to i64
  %160 = getelementptr inbounds i8, ptr %158, i64 %159
  store ptr %160, ptr %6, align 8, !tbaa !19
  %161 = load ptr, ptr %8, align 8, !tbaa !19
  %162 = load i32, ptr %4, align 4, !tbaa !8
  %163 = sext i32 %162 to i64
  %164 = getelementptr inbounds i8, ptr %161, i64 %163
  %165 = load i8, ptr %164, align 1, !tbaa !30
  %166 = zext i8 %165 to i32
  %167 = icmp slt i32 %166, 255
  br i1 %167, label %168, label %169

168:                                              ; preds = %151
  br label %173

169:                                              ; preds = %151
  br label %170

170:                                              ; preds = %169
  %171 = load i32, ptr %4, align 4, !tbaa !8
  %172 = add nsw i32 %171, 1
  store i32 %172, ptr %4, align 4, !tbaa !8
  br label %147, !llvm.loop !202

173:                                              ; preds = %168, %147
  %174 = load i32, ptr %4, align 4, !tbaa !8
  %175 = load i32, ptr %9, align 4, !tbaa !8
  %176 = icmp eq i32 %174, %175
  br i1 %176, label %177, label %178

177:                                              ; preds = %173
  store i32 -1, ptr %4, align 4, !tbaa !8
  br label %178

178:                                              ; preds = %177, %173
  %179 = load ptr, ptr %6, align 8, !tbaa !19
  %180 = load ptr, ptr %3, align 8, !tbaa !3
  %181 = getelementptr inbounds nuw %struct.stb_vorbis, ptr %180, i32 0, i32 13
  %182 = load ptr, ptr %181, align 8, !tbaa !69
  %183 = icmp ugt ptr %179, %182
  br i1 %183, label %184, label %187

184:                                              ; preds = %178
  %185 = load ptr, ptr %3, align 8, !tbaa !3
  %186 = call i32 @error(ptr noundef %185, i32 noundef 1)
  store i32 %186, ptr %2, align 4
  store i32 1, ptr %7, align 4
  br label %188

187:                                              ; preds = %178
  store i32 0, ptr %5, align 4, !tbaa !8
  store i32 0, ptr %7, align 4
  br label %188

188:                                              ; preds = %187, %184, %143, %123, %111, %93, %84, %77
  call void @llvm.lifetime.end.p0(i64 4, ptr %9) #11
  call void @llvm.lifetime.end.p0(i64 8, ptr %8) #11
  %189 = load i32, ptr %7, align 4
  switch i32 %189, label %192 [
    i32 0, label %190
  ]

190:                                              ; preds = %188
  br label %67, !llvm.loop !203

191:                                              ; preds = %67
  store i32 1, ptr %2, align 4
  store i32 1, ptr %7, align 4
  br label %192

192:                                              ; preds = %191, %188, %62
  call void @llvm.lifetime.end.p0(i64 8, ptr %6) #11
  call void @llvm.lifetime.end.p0(i64 4, ptr %5) #11
  call void @llvm.lifetime.end.p0(i64 4, ptr %4) #11
  %193 = load i32, ptr %2, align 4
  ret i32 %193
}